target datalayout = "e-m:e-p270:32:32-p271:32:32-p272:64:64-i64:64-i128:128-f80:128-n8:16:32:64-S128"
target triple = "x86_64-pc-linux-gnu"

%struct.curl_trc_feat = type { ptr, i32 }
%struct.connectdata = type { %struct.Curl_llist_node, ptr, ptr, i64, ptr, i64, ptr, ptr, %struct.hostname, ptr, ptr, %struct.hostname, %struct.proxy_info, %struct.proxy_info, %struct.ip_quadruple, %struct.ip_quadruple, ptr, ptr, ptr, ptr, ptr, %struct.curltime, %struct.curltime, %struct.curltime, [2 x i32], [2 x ptr], [2 x ptr], [2 x ptr], %struct.anon, %struct.easy_pollset, %struct.ssl_primary_config, %struct.ssl_primary_config, %struct.ConnectBits, ptr, ptr, %struct.curltime, i32, i32, %struct.Curl_llist, i32, i32, %struct.ntlmdata, %struct.ntlmdata, %union.anon.1, ptr, ptr, i16, i32, i32, i32, i32, i16, i16, i8, i8, i8, i8, i8, i8, i8 }
%struct.Curl_llist_node = type { ptr, ptr, ptr, ptr }
%struct.hostname = type { ptr, ptr, ptr, ptr }
%struct.proxy_info = type { %struct.hostname, i32, i8, ptr, ptr }
%struct.ip_quadruple = type { [46 x i8], [46 x i8], i32, i32 }
%struct.anon = type { [2 x %struct.curltime], i32 }
%struct.easy_pollset = type { [5 x i32], i32, [5 x i8] }
%struct.ssl_primary_config = type { ptr, ptr, ptr, ptr, ptr, ptr, ptr, ptr, ptr, ptr, ptr, ptr, ptr, ptr, i8, i32, i8, i8 }
%struct.ConnectBits = type { i64 }
%struct.curltime = type { i64, i32 }
%struct.Curl_llist = type { ptr, ptr, ptr, i64 }
%struct.ntlmdata = type { i32, [8 x i8], i32, ptr }
%union.anon.1 = type { %struct.ftp_conn }
%struct.ftp_conn = type { %struct.pingpong, ptr, ptr, ptr, ptr, ptr, ptr, ptr, i8, i64, ptr, i64, i32, i32, i32, i32, i32, i16, i8, i8, i8, i8, i8 }
%struct.pingpong = type { i64, i8, ptr, i64, i64, %struct.curltime, i64, %struct.dynbuf, %struct.dynbuf, i64, i64, ptr, ptr }
%struct.dynbuf = type { ptr, i64, i64, i64 }
%struct.Curl_easy = type { i32, i64, i64, ptr, %struct.Curl_llist_node, %struct.Curl_llist_node, i32, i32, %struct.Curl_message, %struct.easy_pollset, %struct.Names, ptr, ptr, ptr, ptr, %struct.SingleRequest, %struct.UserDefined, ptr, ptr, ptr, %struct.Progress, %struct.UrlState, ptr, %struct.PureInfo, %struct.curl_tlssessioninfo }
%struct.Curl_message = type { %struct.Curl_llist_node, %struct.CURLMsg }
%struct.CURLMsg = type { i32, ptr, %union.anon }
%union.anon = type { ptr }
%struct.Names = type { ptr, i32 }
%struct.SingleRequest = type <{ i64, i64, i64, i64, %struct.curltime, i32, i32, i32, i32, i64, i32, i32, i8, i8, [2 x i8], i32, ptr, ptr, %struct.bufq, i64, i64, ptr, ptr, %union.anon.0, ptr, i8, i32, [3 x i8] }>
%struct.bufq = type { ptr, ptr, ptr, ptr, i64, i64, i64, i32 }
%union.anon.0 = type { ptr }
%struct.UserDefined = type <{ ptr, ptr, ptr, ptr, ptr, ptr, i64, i64, i64, ptr, ptr, i64, ptr, ptr, ptr, ptr, ptr, ptr, ptr, ptr, ptr, ptr, ptr, ptr, ptr, ptr, ptr, ptr, ptr, ptr, ptr, ptr, ptr, ptr, ptr, i64, i64, i64, i64, i64, i64, i64, i64, i64, ptr, ptr, %struct.curl_mimepart, ptr, ptr, ptr, i64, %struct.ssl_config_data, %struct.ssl_config_data, ptr, i16, i8, i8, %struct.ssl_general_config, i32, i32, i32, [4 x i8], ptr, ptr, i64, i32, i8, i8, i8, i8, ptr, ptr, ptr, i32, [4 x i8], [74 x ptr], [8 x ptr], i32, i32, i32, [4 x i8], ptr, i32, [4 x i8], ptr, ptr, ptr, ptr, ptr, i32, i32, i32, i32, i32, i32, i32, i32, i64, ptr, ptr, i64, ptr, i64, ptr, ptr, ptr, ptr, i32, i16, i16, i16, i8, i8, i8, i8, i8, i8, i8, i8, i64, [6 x i8] }>
%struct.curl_mimepart = type { ptr, ptr, i32, i32, ptr, ptr, ptr, ptr, ptr, ptr, ptr, ptr, ptr, ptr, ptr, i64, %struct.mime_state, ptr, %struct.mime_encoder_state, i64 }
%struct.mime_state = type { i32, ptr, i64 }
%struct.mime_encoder_state = type { i64, i64, i64, [256 x i8] }
%struct.ssl_config_data = type { %struct.ssl_primary_config, i64, ptr, ptr, ptr, ptr, ptr, ptr, ptr, i16 }
%struct.ssl_general_config = type { i32 }
%struct.Progress = type { i64, %struct.pgrs_dir, %struct.pgrs_dir, i64, i64, i32, i32, i64, i64, i64, i64, i64, i64, i64, i64, i64, %struct.curltime, %struct.curltime, %struct.curltime, %struct.curltime, %struct.curltime, [6 x i64], [6 x %struct.curltime], i32, i8 }
%struct.pgrs_dir = type { i64, i64, i64, %struct.pgrs_measure }
%struct.pgrs_measure = type { %struct.curltime, i64 }
%struct.UrlState = type { %struct.curltime, i64, i64, %struct.dynbuf, ptr, i64, ptr, i32, i32, i32, ptr, i32, i64, i32, ptr, %struct.digestdata, %struct.digestdata, %struct.auth, %struct.auth, %struct.Curl_async, ptr, i8, %struct.curltime, %struct.Curl_tree, %struct.Curl_llist, [15 x %struct.time_node], ptr, ptr, i64, i64, i64, i64, [32 x i8], i64, ptr, ptr, ptr, %struct.urlpieces, ptr, ptr, ptr, ptr, ptr, i64, %struct.dynbuf, %struct.Curl_llist, [2 x %struct.curl_header], ptr, i32, ptr, ptr, %struct.store_netrc, %struct.dynamically_allocated_data, i8, i8, i8, i8, i32 }
%struct.digestdata = type { ptr, ptr, ptr, ptr, ptr, ptr, i32, i8, i8 }
%struct.auth = type { i64, i64, i64, i8 }
%struct.Curl_async = type { ptr, ptr, ptr, ptr, i32, i32, i8 }
%struct.Curl_tree = type { ptr, ptr, ptr, ptr, %struct.curltime, ptr }
%struct.time_node = type { %struct.Curl_llist_node, %struct.curltime, i32 }
%struct.urlpieces = type { ptr, ptr, ptr, ptr, ptr, ptr, ptr, ptr }
%struct.curl_header = type { ptr, ptr, i64, i64, i32, ptr }
%struct.store_netrc = type { %struct.dynbuf, ptr, i8 }
%struct.dynamically_allocated_data = type { ptr, ptr, ptr, ptr, ptr, ptr, ptr, ptr, ptr, ptr, ptr, ptr, ptr, ptr }
%struct.PureInfo = type { i32, i32, i32, i64, i64, i64, i64, i64, i64, i64, ptr, ptr, i64, i32, %struct.ip_quadruple, i32, ptr, i32, %struct.curl_certinfo, i32, i8 }
%struct.curl_certinfo = type { i32, ptr }
%struct.curl_tlssessioninfo = type { i32, ptr }
%struct.smtp_conn = type { %struct.pingpong, %struct.SASL, i32, ptr, i8 }
%struct.SASL = type { ptr, i32, ptr, i16, i16, i16, i8 }

@.str.12 = private unnamed_addr constant [3 x i8] c"%s\00", align 1
@Curl_cfree = external global ptr, align 8
@smtp_state.names = internal constant [13 x ptr] [ptr @.str.37, ptr @.str.38, ptr @.str.39, ptr @.str.40, ptr @.str.5, ptr @.str.41, ptr @.str.42, ptr @.str.43, ptr @.str.44, ptr @.str.45, ptr @.str.29, ptr @.str.46, ptr @.str.47], align 16
@.str.47 = private unnamed_addr constant [5 x i8] c"QUIT\00", align 1
@Curl_trc_feat_smtp = external global %struct.curl_trc_feat, align 8
@.str.48 = private unnamed_addr constant [27 x i8] c"state change from %s to %s\00", align 1
@.str.67 = private unnamed_addr constant [28 x i8] c"smtp_disconnect(), finished\00", align 1

; Function Attrs: nounwind uwtable
define internal void @smtp_state(ptr noundef %0, i32 noundef %1) #0 {
  %3 = alloca ptr, align 8
  %4 = alloca i32, align 4
  %5 = alloca ptr, align 8
  store ptr %0, ptr %3, align 8, !tbaa !3
  store i32 %1, ptr %4, align 4, !tbaa !10
  call void @llvm.lifetime.start.p0(i64 8, ptr %5) #7
  %6 = load ptr, ptr %3, align 8, !tbaa !3
  %7 = getelementptr inbounds nuw %struct.Curl_easy, ptr %6, i32 0, i32 3
  %8 = load ptr, ptr %7, align 8, !tbaa !87
  %9 = getelementptr inbounds nuw %struct.connectdata, ptr %8, i32 0, i32 43
  store ptr %9, ptr %5, align 8, !tbaa !97
  %10 = load ptr, ptr %5, align 8, !tbaa !97
  %11 = getelementptr inbounds nuw %struct.smtp_conn, ptr %10, i32 0, i32 2
  %12 = load i32, ptr %11, align 8, !tbaa !105
  %13 = load i32, ptr %4, align 4, !tbaa !10
  %14 = icmp ne i32 %12, %13
  br i1 %14, label %15, label %60

15:                                               ; preds = %2
  br label %16

16:                                               ; preds = %15
  %17 = load ptr, ptr %3, align 8, !tbaa !3
  %18 = icmp ne ptr %17, null
  br i1 %18, label %19, label %57

19:                                               ; preds = %16
  %20 = load ptr, ptr %3, align 8, !tbaa !3
  %21 = getelementptr inbounds nuw %struct.Curl_easy, ptr %20, i32 0, i32 16
  %22 = getelementptr inbounds nuw %struct.UserDefined, ptr %21, i32 0, i32 119
  %23 = load i64, ptr %22, align 2
  %24 = lshr i64 %23, 31
  %25 = and i64 %24, 1
  %26 = trunc i64 %25 to i32
  %27 = icmp ne i32 %26, 0
  br i1 %27, label %28, label %57

28:                                               ; preds = %19
  %29 = load ptr, ptr %3, align 8, !tbaa !3
  %30 = getelementptr inbounds nuw %struct.Curl_easy, ptr %29, i32 0, i32 21
  %31 = getelementptr inbounds nuw %struct.UrlState, ptr %30, i32 0, i32 50
  %32 = load ptr, ptr %31, align 8, !tbaa !12
  %33 = icmp ne ptr %32, null
  br i1 %33, label %34, label %42

34:                                               ; preds = %28
  %35 = load ptr, ptr %3, align 8, !tbaa !3
  %36 = getelementptr inbounds nuw %struct.Curl_easy, ptr %35, i32 0, i32 21
  %37 = getelementptr inbounds nuw %struct.UrlState, ptr %36, i32 0, i32 50
  %38 = load ptr, ptr %37, align 8, !tbaa !12
  %39 = getelementptr inbounds nuw %struct.curl_trc_feat, ptr %38, i32 0, i32 1
  %40 = load i32, ptr %39, align 8, !tbaa !79
  %41 = icmp sge i32 %40, 1
  br i1 %41, label %42, label %57

42:                                               ; preds = %34, %28
  %43 = load i32, ptr getelementptr inbounds nuw (%struct.curl_trc_feat, ptr @Curl_trc_feat_smtp, i32 0, i32 1), align 8, !tbaa !79
  %44 = icmp sge i32 %43, 1
  br i1 %44, label %45, label %57

45:                                               ; preds = %42
  %46 = load ptr, ptr %3, align 8, !tbaa !3
  %47 = load ptr, ptr %5, align 8, !tbaa !97
  %48 = getelementptr inbounds nuw %struct.smtp_conn, ptr %47, i32 0, i32 2
  %49 = load i32, ptr %48, align 8, !tbaa !105
  %50 = zext i32 %49 to i64
  %51 = getelementptr inbounds nuw [13 x ptr], ptr @smtp_state.names, i64 0, i64 %50
  %52 = load ptr, ptr %51, align 8, !tbaa !118
  %53 = load i32, ptr %4, align 4, !tbaa !10
  %54 = zext i32 %53 to i64
  %55 = getelementptr inbounds nuw [13 x ptr], ptr @smtp_state.names, i64 0, i64 %54
  %56 = load ptr, ptr %55, align 8, !tbaa !118
  call void (ptr, ptr, ...) @Curl_trc_smtp(ptr noundef %46, ptr noundef @.str.48, ptr noundef %52, ptr noundef %56)
  br label %57

57:                                               ; preds = %45, %42, %34, %19, %16
  br label %58

58:                                               ; preds = %57
  br label %59

59:                                               ; preds = %58
  br label %60

60:                                               ; preds = %59, %2
  %61 = load i32, ptr %4, align 4, !tbaa !10
  %62 = load ptr, ptr %5, align 8, !tbaa !97
  %63 = getelementptr inbounds nuw %struct.smtp_conn, ptr %62, i32 0, i32 2
  store i32 %61, ptr %63, align 8, !tbaa !105
  call void @llvm.lifetime.end.p0(i64 8, ptr %5) #7
  ret void
}

; Function Attrs: nounwind uwtable
define internal i32 @smtp_block_statemach(ptr noundef %0, ptr noundef %1, i1 noundef zeroext %2) #0 {
  %4 = alloca ptr, align 8
  %5 = alloca ptr, align 8
  %6 = alloca i8, align 1
  %7 = alloca i32, align 4
  %8 = alloca ptr, align 8
  store ptr %0, ptr %4, align 8, !tbaa !3
  store ptr %1, ptr %5, align 8, !tbaa !8
  %9 = zext i1 %2 to i8
  store i8 %9, ptr %6, align 1, !tbaa !83
  call void @llvm.lifetime.start.p0(i64 4, ptr %7) #7
  store i32 0, ptr %7, align 4, !tbaa !10
  call void @llvm.lifetime.start.p0(i64 8, ptr %8) #7
  %10 = load ptr, ptr %5, align 8, !tbaa !8
  %11 = getelementptr inbounds nuw %struct.connectdata, ptr %10, i32 0, i32 43
  store ptr %11, ptr %8, align 8, !tbaa !97
  br label %12

12:                                               ; preds = %23, %3
  %13 = load ptr, ptr %8, align 8, !tbaa !97
  %14 = getelementptr inbounds nuw %struct.smtp_conn, ptr %13, i32 0, i32 2
  %15 = load i32, ptr %14, align 8, !tbaa !105
  %16 = icmp ne i32 %15, 0
  br i1 %16, label %17, label %21

17:                                               ; preds = %12
  %18 = load i32, ptr %7, align 4, !tbaa !10
  %19 = icmp ne i32 %18, 0
  %20 = xor i1 %19, true
  br label %21

21:                                               ; preds = %17, %12
  %22 = phi i1 [ false, %12 ], [ %20, %17 ]
  br i1 %22, label %23, label %30

23:                                               ; preds = %21
  %24 = load ptr, ptr %4, align 8, !tbaa !3
  %25 = load ptr, ptr %8, align 8, !tbaa !97
  %26 = getelementptr inbounds nuw %struct.smtp_conn, ptr %25, i32 0, i32 0
  %27 = load i8, ptr %6, align 1, !tbaa !83, !range !85, !noundef !86
  %28 = trunc i8 %27 to i1
  %29 = call i32 @Curl_pp_statemach(ptr noundef %24, ptr noundef %26, i1 noundef zeroext true, i1 noundef zeroext %28)
  store i32 %29, ptr %7, align 4, !tbaa !10
  br label %12, !llvm.loop !155

30:                                               ; preds = %21
  %31 = load i32, ptr %7, align 4, !tbaa !10
  call void @llvm.lifetime.end.p0(i64 8, ptr %8) #7
  call void @llvm.lifetime.end.p0(i64 4, ptr %7) #7
  ret i32 %31
}

; Function Attrs: nounwind uwtable
define internal i32 @smtp_perform_quit(ptr noundef %0, ptr noundef %1) #0 {
  %3 = alloca ptr, align 8
  %4 = alloca ptr, align 8
  %5 = alloca i32, align 4
  store ptr %0, ptr %3, align 8, !tbaa !3
  store ptr %1, ptr %4, align 8, !tbaa !8
  call void @llvm.lifetime.start.p0(i64 4, ptr %5) #7
  %6 = load ptr, ptr %3, align 8, !tbaa !3
  %7 = load ptr, ptr %4, align 8, !tbaa !8
  %8 = getelementptr inbounds nuw %struct.connectdata, ptr %7, i32 0, i32 43
  %9 = getelementptr inbounds nuw %struct.smtp_conn, ptr %8, i32 0, i32 0
  %10 = call i32 (ptr, ptr, ptr, ...) @Curl_pp_sendf(ptr noundef %6, ptr noundef %9, ptr noundef @.str.12, ptr noundef @.str.47)
  store i32 %10, ptr %5, align 4, !tbaa !10
  %11 = load i32, ptr %5, align 4, !tbaa !10
  %12 = icmp ne i32 %11, 0
  br i1 %12, label %15, label %13

13:                                               ; preds = %2
  %14 = load ptr, ptr %3, align 8, !tbaa !3
  call void @smtp_state(ptr noundef %14, i32 noundef 12)
  br label %15

15:                                               ; preds = %13, %2
  %16 = load i32, ptr %5, align 4, !tbaa !10
  call void @llvm.lifetime.end.p0(i64 4, ptr %5) #7
  ret i32 %16
}

; Function Attrs: nounwind uwtable
define internal i32 @smtp_disconnect(ptr noundef %0, ptr noundef %1, i1 noundef zeroext %2) #0 {
  %4 = alloca ptr, align 8
  %5 = alloca ptr, align 8
  %6 = alloca i8, align 1
  %7 = alloca ptr, align 8
  store ptr %0, ptr %4, align 8, !tbaa !3
  store ptr %1, ptr %5, align 8, !tbaa !8
  %8 = zext i1 %2 to i8
  store i8 %8, ptr %6, align 1, !tbaa !83
  call void @llvm.lifetime.start.p0(i64 8, ptr %7) #7
  %9 = load ptr, ptr %5, align 8, !tbaa !8
  %10 = getelementptr inbounds nuw %struct.connectdata, ptr %9, i32 0, i32 43
  store ptr %10, ptr %7, align 8, !tbaa !97
  %11 = load i8, ptr %6, align 1, !tbaa !83, !range !85, !noundef !86
  %12 = trunc i8 %11 to i1
  br i1 %12, label %31, label %13

13:                                               ; preds = %3
  %14 = load ptr, ptr %5, align 8, !tbaa !8
  %15 = getelementptr inbounds nuw %struct.connectdata, ptr %14, i32 0, i32 32
  %16 = load i64, ptr %15, align 8
  %17 = lshr i64 %16, 13
  %18 = and i64 %17, 1
  %19 = trunc i64 %18 to i32
  %20 = icmp ne i32 %19, 0
  br i1 %20, label %21, label %31

21:                                               ; preds = %13
  %22 = load ptr, ptr %4, align 8, !tbaa !3
  %23 = load ptr, ptr %5, align 8, !tbaa !8
  %24 = call i32 @smtp_perform_quit(ptr noundef %22, ptr noundef %23)
  %25 = icmp ne i32 %24, 0
  br i1 %25, label %30, label %26

26:                                               ; preds = %21
  %27 = load ptr, ptr %4, align 8, !tbaa !3
  %28 = load ptr, ptr %5, align 8, !tbaa !8
  %29 = call i32 @smtp_block_statemach(ptr noundef %27, ptr noundef %28, i1 noundef zeroext true)
  br label %30

30:                                               ; preds = %26, %21
  br label %31

31:                                               ; preds = %30, %13, %3
  %32 = load ptr, ptr %7, align 8, !tbaa !97
  %33 = getelementptr inbounds nuw %struct.smtp_conn, ptr %32, i32 0, i32 0
  %34 = call i32 @Curl_pp_disconnect(ptr noundef %33)
  %35 = load ptr, ptr %5, align 8, !tbaa !8
  %36 = load ptr, ptr %7, align 8, !tbaa !97
  %37 = getelementptr inbounds nuw %struct.smtp_conn, ptr %36, i32 0, i32 1
  %38 = getelementptr inbounds nuw %struct.SASL, ptr %37, i32 0, i32 5
  %39 = load i16, ptr %38, align 4, !tbaa !111
  call void @Curl_sasl_cleanup(ptr noundef %35, i16 noundef zeroext %39)
  br label %40

40:                                               ; preds = %31
  %41 = load ptr, ptr @Curl_cfree, align 8, !tbaa !91
  %42 = load ptr, ptr %7, align 8, !tbaa !97
  %43 = getelementptr inbounds nuw %struct.smtp_conn, ptr %42, i32 0, i32 3
  %44 = load ptr, ptr %43, align 8, !tbaa !112
  call void %41(ptr noundef %44)
  %45 = load ptr, ptr %7, align 8, !tbaa !97
  %46 = getelementptr inbounds nuw %struct.smtp_conn, ptr %45, i32 0, i32 3
  store ptr null, ptr %46, align 8, !tbaa !112
  br label %47

47:                                               ; preds = %40
  br label %48

48:                                               ; preds = %47
  br label %49

49:                                               ; preds = %48
  %50 = load ptr, ptr %4, align 8, !tbaa !3
  %51 = icmp ne ptr %50, null
  br i1 %51, label %52, label %80

52:                                               ; preds = %49
  %53 = load ptr, ptr %4, align 8, !tbaa !3
  %54 = getelementptr inbounds nuw %struct.Curl_easy, ptr %53, i32 0, i32 16
  %55 = getelementptr inbounds nuw %struct.UserDefined, ptr %54, i32 0, i32 119
  %56 = load i64, ptr %55, align 2
  %57 = lshr i64 %56, 31
  %58 = and i64 %57, 1
  %59 = trunc i64 %58 to i32
  %60 = icmp ne i32 %59, 0
  br i1 %60, label %61, label %80

61:                                               ; preds = %52
  %62 = load ptr, ptr %4, align 8, !tbaa !3
  %63 = getelementptr inbounds nuw %struct.Curl_easy, ptr %62, i32 0, i32 21
  %64 = getelementptr inbounds nuw %struct.UrlState, ptr %63, i32 0, i32 50
  %65 = load ptr, ptr %64, align 8, !tbaa !12
  %66 = icmp ne ptr %65, null
  br i1 %66, label %67, label %75

67:                                               ; preds = %61
  %68 = load ptr, ptr %4, align 8, !tbaa !3
  %69 = getelementptr inbounds nuw %struct.Curl_easy, ptr %68, i32 0, i32 21
  %70 = getelementptr inbounds nuw %struct.UrlState, ptr %69, i32 0, i32 50
  %71 = load ptr, ptr %70, align 8, !tbaa !12
  %72 = getelementptr inbounds nuw %struct.curl_trc_feat, ptr %71, i32 0, i32 1
  %73 = load i32, ptr %72, align 8, !tbaa !79
  %74 = icmp sge i32 %73, 1
  br i1 %74, label %75, label %80

75:                                               ; preds = %67, %61
  %76 = load i32, ptr getelementptr inbounds nuw (%struct.curl_trc_feat, ptr @Curl_trc_feat_smtp, i32 0, i32 1), align 8, !tbaa !79
  %77 = icmp sge i32 %76, 1
  br i1 %77, label %78, label %80

78:                                               ; preds = %75
  %79 = load ptr, ptr %4, align 8, !tbaa !3
  call void (ptr, ptr, ...) @Curl_trc_smtp(ptr noundef %79, ptr noundef @.str.67)
  br label %80

80:                                               ; preds = %78, %75, %67, %52, %49
  br label %81

81:                                               ; preds = %80
  br label %82

82:                                               ; preds = %81
  call void @llvm.lifetime.end.p0(i64 8, ptr %7) #7
  ret i32 0
}