; Function Attrs: nounwind uwtable
define internal noundef i32 @smtp_disconnect(ptr noundef %0, ptr noundef %1, i1 noundef zeroext %2) #0 {
  %4 = getelementptr inbounds nuw i8, ptr %1, i64 1088
  br i1 %2, label %smtp_perform_quit.exit, label %5

5:                                                ; preds = %3
  %6 = getelementptr inbounds nuw i8, ptr %1, i64 952
  %7 = load i64, ptr %6, align 8
  %8 = and i64 %7, 8192
  %.not = icmp eq i64 %8, 0
  br i1 %.not, label %smtp_perform_quit.exit, label %9

9:                                                ; preds = %5
  %10 = tail call i32 (ptr, ptr, ptr, ...) @Curl_pp_sendf(ptr noundef %0, ptr noundef nonnull %4, ptr noundef nonnull @.str.12, ptr noundef nonnull @.str.47) #9
  %.not.i = icmp eq i32 %10, 0
  br i1 %.not.i, label %11, label %smtp_perform_quit.exit

11:                                               ; preds = %9
  %12 = getelementptr inbounds nuw i8, ptr %0, i64 24
  %13 = load ptr, ptr %12, align 8, !tbaa !90
  %14 = getelementptr inbounds nuw i8, ptr %13, i64 1280
  %15 = load i32, ptr %14, align 8, !tbaa !103
  %16 = icmp ne i32 %15, 12
  %17 = icmp ne ptr %0, null
  %or.cond4.i.i = and i1 %17, %16
  br i1 %or.cond4.i.i, label %18, label %36

18:                                               ; preds = %11
  %19 = getelementptr inbounds nuw i8, ptr %0, i64 2658
  %20 = load i64, ptr %19, align 2
  %21 = and i64 %20, 2147483648
  %.not.i.i = icmp eq i64 %21, 0
  br i1 %.not.i.i, label %36, label %22

22:                                               ; preds = %18
  %23 = getelementptr inbounds nuw i8, ptr %0, i64 4864
  %24 = load ptr, ptr %23, align 8, !tbaa !8
  %.not17.i.i = icmp eq ptr %24, null
  br i1 %.not17.i.i, label %31, label %25

25:                                               ; preds = %22
  %26 = getelementptr inbounds nuw i8, ptr %24, i64 8
  %27 = load i32, ptr %26, align 8, !tbaa !77
  %28 = icmp sgt i32 %27, 0
  %29 = load i32, ptr getelementptr inbounds nuw (i8, ptr @Curl_trc_feat_smtp, i64 8), align 8
  %30 = icmp sgt i32 %29, 0
  %or.cond.i.i = select i1 %28, i1 %30, i1 false
  br i1 %or.cond.i.i, label %32, label %36

31:                                               ; preds = %22
  %.old.i.i = load i32, ptr getelementptr inbounds nuw (i8, ptr @Curl_trc_feat_smtp, i64 8), align 8, !tbaa !77
  %.old1.i.i = icmp sgt i32 %.old.i.i, 0
  br i1 %.old1.i.i, label %32, label %36

32:                                               ; preds = %31, %25
  %33 = zext i32 %15 to i64
  %34 = getelementptr inbounds nuw [13 x ptr], ptr @smtp_state.names, i64 0, i64 %33
  %35 = load ptr, ptr %34, align 8, !tbaa !81
  tail call void (ptr, ptr, ...) @Curl_trc_smtp(ptr noundef nonnull %0, ptr noundef nonnull @.str.48, ptr noundef %35, ptr noundef nonnull @.str.47) #9
  br label %36

36:                                               ; preds = %11, %18, %25, %31, %32
  store i32 12, ptr %14, align 8, !tbaa !103
  %37 = getelementptr inbounds nuw i8, ptr %1, i64 1280
  %38 = load i32, ptr %37, align 8, !tbaa !103
  %.not6.i = icmp eq i32 %38, 0
  br i1 %.not6.i, label %smtp_perform_quit.exit, label %.lr.ph.i

.lr.ph.i:                                         ; preds = %36, %.lr.ph.i
  %39 = tail call i32 @Curl_pp_statemach(ptr noundef %0, ptr noundef nonnull %4, i1 noundef zeroext true, i1 noundef zeroext true) #9
  %40 = load i32, ptr %37, align 8, !tbaa !103
  %41 = icmp ne i32 %40, 0
  %.not.i22 = icmp eq i32 %39, 0
  %42 = select i1 %41, i1 %.not.i22, i1 false
  br i1 %42, label %.lr.ph.i, label %smtp_perform_quit.exit, !llvm.loop !111

smtp_perform_quit.exit:                           ; preds = %.lr.ph.i, %36, %9, %5, %3
  %43 = tail call i32 @Curl_pp_disconnect(ptr noundef nonnull %4) #9
  %44 = getelementptr inbounds nuw i8, ptr %1, i64 1276
  %45 = load i16, ptr %44, align 4, !tbaa !127
  tail call void @Curl_sasl_cleanup(ptr noundef %1, i16 noundef zeroext %45) #9
  %46 = load ptr, ptr @Curl_cfree, align 8, !tbaa !3
  %47 = getelementptr inbounds nuw i8, ptr %1, i64 1288
  %48 = load ptr, ptr %47, align 8, !tbaa !128
  tail call void %46(ptr noundef %48) #9
  store ptr null, ptr %47, align 8, !tbaa !128
  %.not19 = icmp eq ptr %0, null
  br i1 %.not19, label %64, label %49

49:                                               ; preds = %smtp_perform_quit.exit
  %50 = getelementptr inbounds nuw i8, ptr %0, i64 2658
  %51 = load i64, ptr %50, align 2
  %52 = and i64 %51, 2147483648
  %.not20 = icmp eq i64 %52, 0
  br i1 %.not20, label %64, label %53

53:                                               ; preds = %49
  %54 = getelementptr inbounds nuw i8, ptr %0, i64 4864
  %55 = load ptr, ptr %54, align 8, !tbaa !8
  %.not21 = icmp eq ptr %55, null
  br i1 %.not21, label %62, label %56

56:                                               ; preds = %53
  %57 = getelementptr inbounds nuw i8, ptr %55, i64 8
  %58 = load i32, ptr %57, align 8, !tbaa !77
  %59 = icmp sgt i32 %58, 0
  %60 = load i32, ptr getelementptr inbounds nuw (i8, ptr @Curl_trc_feat_smtp, i64 8), align 8
  %61 = icmp sgt i32 %60, 0
  %or.cond = select i1 %59, i1 %61, i1 false
  br i1 %or.cond, label %63, label %64

62:                                               ; preds = %53
  %.old = load i32, ptr getelementptr inbounds nuw (i8, ptr @Curl_trc_feat_smtp, i64 8), align 8, !tbaa !77
  %.old1 = icmp sgt i32 %.old, 0
  br i1 %.old1, label %63, label %64

63:                                               ; preds = %56, %62
  tail call void (ptr, ptr, ...) @Curl_trc_smtp(ptr noundef nonnull %0, ptr noundef nonnull @.str.67) #9
  br label %64

64:                                               ; preds = %63, %62, %56, %49, %smtp_perform_quit.exit
  ret i32 0
}